; Function Attrs: nofree norecurse nosync nounwind memory(argmem: readwrite) uwtable
define range(i32 0, 2) i32 @lv_circle_buf_skip(ptr noundef captures(address_is_null) %0) local_unnamed_addr #4 {
  %.not = icmp eq ptr %0, null
  br i1 %.not, label %.preheader, label %lv_circle_buf_is_empty.exit

.preheader:                                       ; preds = %1, %.preheader
  br label %.preheader

lv_circle_buf_is_empty.exit:                      ; preds = %1
  %2 = getelementptr inbounds nuw i8, ptr %0, i64 28
  %3 = load i32, ptr %2, align 4, !tbaa !12
  %4 = getelementptr inbounds nuw i8, ptr %0, i64 24
  %5 = load i32, ptr %4, align 8, !tbaa !3
  %.not2.i = icmp eq i32 %3, %5
  br i1 %.not2.i, label %6, label %7

6:                                                ; preds = %lv_circle_buf_is_empty.exit
  store i32 0, ptr %2, align 4, !tbaa !12
  br label %9

7:                                                ; preds = %lv_circle_buf_is_empty.exit
  %8 = add i32 %5, 1
  br label %9

9:                                                ; preds = %7, %6
  %.sink = phi i32 [ 0, %6 ], [ %8, %7 ]
  %.0 = phi i32 [ 0, %6 ], [ 1, %7 ]
  store i32 %.sink, ptr %4, align 8, !tbaa !3
  ret i32 %.0
}